(dp0
VServer
p1
Vcmsweb.cern.ch
p2
sVPort
p3
V
p4
sVRequestName
p5
V250405_031608:bhbam_crab_NANOAODSIM_VBFH_HToAATo4Tau_M3p7
p6
sVvoRole
p7
VNULL
p8
sVvoGroup
p9
g4
sVinstance
p10
Vprod
p11
sVOriginalConfig
p12
ccopy_reg
_reconstructor
p13
(cWMCore.Configuration
Configuration
p14
c__builtin__
object
p15
Ntp16
Rp17
(dp18
V_internal_sections
p19
(lp20
VGeneral
p21
aVJobType
p22
aVData
p23
aVSite
p24
aVUser
p25
aVDebug
p26
asg21
g13
(cWMCore.Configuration
ConfigSection
p27
g15
Ntp28
Rp29
(dp30
V_internal_documentation
p31
g4
sV_internal_name
p32
g21
sV_internal_settings
p33
c__builtin__
set
p34
((lp35
VtransferOutputs
p36
aVtransferLogs
p37
aVworkArea
p38
aVrequestName
p39
atp40
Rp41
sV_internal_docstrings
p42
(dp43
sV_internal_children
p44
g34
((lp45
tp46
Rp47
sV_internal_parent_ref
p48
NsV_internal_skipChecks
p49
I00
sg39
VNANOAODSIM_VBFH_HToAATo4Tau_M3p7
p50
sg38
Vcrab_VBFH
p51
sg36
I01
sg37
I01
sbsg22
g13
(g27
g15
Ntp52
Rp53
(dp54
g31
g4
sg32
g22
sg33
g34
((lp55
VpluginName
p56
aVallowUndistributedCMSSW
p57
aVnumCores
p58
aVpsetName
p59
aVmaxMemoryMB
p60
atp61
Rp62
sg42
(dp63
sg44
g34
((lp64
tp65
Rp66
sg48
Nsg49
I00
sg56
VAnalysis
p67
sg59
Vstep5_NanoAOD_v2_cfg.py
p68
sg60
I10000
sg58
I4
sg57
I01
sbsg23
g13
(g27
g15
Ntp69
Rp70
(dp71
g31
g4
sg32
g23
sg33
g34
((lp72
VinputDataset
p73
aVpublication
p74
aVinputDBS
p75
aVsplitting
p76
aVoutputDatasetTag
p77
aVunitsPerJob
p78
aVignoreLocality
p79
aVoutLFNDirBase
p80
atp81
Rp82
sg42
(dp83
sg44
g34
((lp84
tp85
Rp86
sg48
Nsg49
I00
sg75
Vphys03
p87
sg73
V/VBFH_HToAATo4Tau_GEN_SIM_M3p7/lpcml-MINIAODSIM_VBFH_HToAATo4Tau_M3p7-f2508c1b00fdd2cc2fdf87ba946bfa33/USER
p88
sg76
VFileBased
p89
sg78
I1
sg79
I01
sg80
V/store/group/lpcml/bbbam/MCGeneration_run3/VBF_signals
p90
sg74
I01
sg77
g50
sbsg24
g13
(g27
g15
Ntp91
Rp92
(dp93
g31
g4
sg32
g24
sg33
g34
((lp94
VstorageSite
p95
aVwhitelist
p96
atp97
Rp98
sg42
(dp99
sg44
g34
((lp100
tp101
Rp102
sg48
Nsg49
I00
sg96
(lp103
VT3_US_FNALLPC
p104
aVT2_AT_Vienna
p105
aVT2_BE_IIHE
p106
aVT2_BE_UCL
p107
aVT2_BR_SPRACE
p108
aVT2_BR_UERJ
p109
aVT2_CH_CERN
p110
aVT2_CN_Beijing
p111
aVT2_DE_DESY
p112
aVT2_DE_RWTH
p113
aVT2_EE_Estonia
p114
aVT2_ES_CIEMAT
p115
aVT2_ES_IFCA
p116
aVT2_FI_HIP
p117
aVT2_FR_IPHC
p118
aVT2_GR_Ioannina
p119
aVT2_HU_Budapest
p120
aVT2_IN_TIFR
p121
aVT2_IT_Bari
p122
aVT2_IT_Legnaro
p123
aVT2_IT_Pisa
p124
aVT2_IT_Rome
p125
aVT2_KR_KISTI
p126
aVT2_PK_NCP
p127
aVT2_PL_Cyfronet
p128
aVT2_PT_NCG_Lisbon
p129
aVT2_RU_IHEP
p130
aVT2_TR_METU
p131
aVT2_TW_NCHC
p132
aVT2_UA_KIPT
p133
aVT2_UK_London_Brunel
p134
aVT2_UK_London_IC
p135
aVT2_UK_SGrid_Bristol
p136
aVT2_UK_SGrid_RALPP
p137
aVT2_US_Caltech
p138
aVT2_US_Florida
p139
aVT2_US_MIT
p140
aVT2_US_Nebraska
p141
aVT2_US_Purdue
p142
aVT2_US_UCSD
p143
aVT2_US_Vanderbilt
p144
aVT2_US_Wisconsin
p145
asg95
g104
sbsg25
g13
(g27
g15
Ntp146
Rp147
(dp148
g31
g4
sg32
g25
sg33
g34
((lp149
tp150
Rp151
sg42
(dp152
sg44
g34
((lp153
tp154
Rp155
sg48
Nsg49
I00
sbsg26
g13
(g27
g15
Ntp156
Rp157
(dp158
g31
g4
sg32
g26
sg33
g34
((lp159
tp160
Rp161
sg42
(dp162
sg44
g34
((lp163
tp164
Rp165
sg48
Nsg49
I00
sbsbs.