(dp0
VServer
p1
Vcmsweb.cern.ch
p2
sVPort
p3
V
p4
sVRequestName
p5
V251218_115134:bhbam_crab_HTo2Tau_hadronic_AOD
p6
sVvoRole
p7
VNULL
p8
sVvoGroup
p9
g4
sVinstance
p10
Vprod
p11
sVOriginalConfig
p12
ccopy_reg
_reconstructor
p13
(cWMCore.Configuration
Configuration
p14
c__builtin__
object
p15
Ntp16
Rp17
(dp18
V_internal_sections
p19
(lp20
VGeneral
p21
aVJobType
p22
aVData
p23
aVSite
p24
aVUser
p25
aVDebug
p26
asg21
g13
(cWMCore.Configuration
ConfigSection
p27
g15
Ntp28
Rp29
(dp30
V_internal_documentation
p31
g4
sV_internal_name
p32
g21
sV_internal_settings
p33
c__builtin__
set
p34
((lp35
VrequestName
p36
aVtransferLogs
p37
aVworkArea
p38
aVtransferOutputs
p39
atp40
Rp41
sV_internal_docstrings
p42
(dp43
sV_internal_children
p44
g34
((lp45
tp46
Rp47
sV_internal_parent_ref
p48
NsV_internal_skipChecks
p49
I00
sg36
VHTo2Tau_hadronic_AOD
p50
sg38
Vcrab_HTo2Tau
p51
sg39
I01
sg37
I01
sbsg22
g13
(g27
g15
Ntp52
Rp53
(dp54
g31
g4
sg32
g22
sg33
g34
((lp55
VpluginName
p56
aVpsetName
p57
aVallowUndistributedCMSSW
p58
aVmaxMemoryMB
p59
atp60
Rp61
sg42
(dp62
sg44
g34
((lp63
tp64
Rp65
sg48
Nsg49
I00
sg56
VAnalysis
p66
sg57
Vstep3_AODSIM_cfg.py
p67
sg59
I3000
sg58
I01
sbsg23
g13
(g27
g15
Ntp68
Rp69
(dp70
g31
g4
sg32
g23
sg33
g34
((lp71
VinputDataset
p72
aVignoreLocality
p73
aVpublication
p74
aVoutputDatasetTag
p75
aVunitsPerJob
p76
aVoutLFNDirBase
p77
aVsplitting
p78
aVinputDBS
p79
atp80
Rp81
sg42
(dp82
sg44
g34
((lp83
tp84
Rp85
sg48
Nsg49
I00
sg79
Vphys03
p86
sg72
V/HTo2Tau_hadronic_GEN_SIM/lpcml-HTo2Tau_hadronic_HLT_Primix-26240d1e6039ee29161351aa2c33106e/USER
p87
sg78
VFileBased
p88
sg76
I1
sg73
I01
sg77
V/store/group/lpcml/bbbam/MCGeneration_run3/HTo2Tau_hadronic
p89
sg74
I01
sg75
g50
sbsg24
g13
(g27
g15
Ntp90
Rp91
(dp92
g31
g4
sg32
g24
sg33
g34
((lp93
Vwhitelist
p94
aVstorageSite
p95
atp96
Rp97
sg42
(dp98
sg44
g34
((lp99
tp100
Rp101
sg48
Nsg49
I00
sg94
(lp102
VT3_US_FNALLPC
p103
aVT2_AT_Vienna
p104
aVT2_BE_IIHE
p105
aVT2_BE_UCL
p106
aVT2_BR_SPRACE
p107
aVT2_BR_UERJ
p108
aVT2_CH_CERN
p109
aVT2_CN_Beijing
p110
aVT2_DE_DESY
p111
aVT2_DE_RWTH
p112
aVT2_EE_Estonia
p113
aVT2_ES_CIEMAT
p114
aVT2_ES_IFCA
p115
aVT2_FI_HIP
p116
aVT2_FR_IPHC
p117
aVT2_GR_Ioannina
p118
aVT2_HU_Budapest
p119
aVT2_IN_TIFR
p120
aVT2_IT_Bari
p121
aVT2_IT_Legnaro
p122
aVT2_IT_Pisa
p123
aVT2_IT_Rome
p124
aVT2_KR_KISTI
p125
aVT2_PK_NCP
p126
aVT2_PL_Cyfronet
p127
aVT2_PT_NCG_Lisbon
p128
aVT2_RU_IHEP
p129
aVT2_TR_METU
p130
aVT2_TW_NCHC
p131
aVT2_UA_KIPT
p132
aVT2_UK_London_Brunel
p133
aVT2_UK_London_IC
p134
aVT2_UK_SGrid_Bristol
p135
aVT2_UK_SGrid_RALPP
p136
aVT2_US_Caltech
p137
aVT2_US_Florida
p138
aVT2_US_MIT
p139
aVT2_US_Nebraska
p140
aVT2_US_Purdue
p141
aVT2_US_UCSD
p142
aVT2_US_Vanderbilt
p143
aVT2_US_Wisconsin
p144
asg95
g103
sbsg25
g13
(g27
g15
Ntp145
Rp146
(dp147
g31
g4
sg32
g25
sg33
g34
((lp148
tp149
Rp150
sg42
(dp151
sg44
g34
((lp152
tp153
Rp154
sg48
Nsg49
I00
sbsg26
g13
(g27
g15
Ntp155
Rp156
(dp157
g31
g4
sg32
g26
sg33
g34
((lp158
tp159
Rp160
sg42
(dp161
sg44
g34
((lp162
tp163
Rp164
sg48
Nsg49
I00
sbsbs.