(dp0
VServer
p1
Vcmsweb.cern.ch
p2
sVPort
p3
V
p4
sVRequestName
p5
V251218_142409:bhbam_crab_HTo2Tau_hadronic_MiniAOD
p6
sVvoRole
p7
VNULL
p8
sVvoGroup
p9
g4
sVinstance
p10
Vprod
p11
sVOriginalConfig
p12
ccopy_reg
_reconstructor
p13
(cWMCore.Configuration
Configuration
p14
c__builtin__
object
p15
Ntp16
Rp17
(dp18
V_internal_sections
p19
(lp20
VGeneral
p21
aVJobType
p22
aVData
p23
aVSite
p24
aVUser
p25
aVDebug
p26
asg21
g13
(cWMCore.Configuration
ConfigSection
p27
g15
Ntp28
Rp29
(dp30
V_internal_documentation
p31
g4
sV_internal_name
p32
g21
sV_internal_settings
p33
c__builtin__
set
p34
((lp35
VtransferLogs
p36
aVrequestName
p37
aVtransferOutputs
p38
aVworkArea
p39
atp40
Rp41
sV_internal_docstrings
p42
(dp43
sV_internal_children
p44
g34
((lp45
tp46
Rp47
sV_internal_parent_ref
p48
NsV_internal_skipChecks
p49
I00
sg37
VHTo2Tau_hadronic_MiniAOD
p50
sg39
Vcrab_HTo2Tau
p51
sg38
I01
sg36
I01
sbsg22
g13
(g27
g15
Ntp52
Rp53
(dp54
g31
g4
sg32
g22
sg33
g34
((lp55
VallowUndistributedCMSSW
p56
aVpsetName
p57
aVpluginName
p58
atp59
Rp60
sg42
(dp61
sg44
g34
((lp62
tp63
Rp64
sg48
Nsg49
I00
sg58
VAnalysis
p65
sg57
Vstep4_miniAOD_with_RAWAOD_RecHit_cfg.py
p66
sg56
I01
sbsg23
g13
(g27
g15
Ntp67
Rp68
(dp69
g31
g4
sg32
g23
sg33
g34
((lp70
Vsplitting
p71
aVpublication
p72
aVinputDataset
p73
aVinputDBS
p74
aVignoreLocality
p75
aVoutputDatasetTag
p76
aVunitsPerJob
p77
aVoutLFNDirBase
p78
atp79
Rp80
sg42
(dp81
sg44
g34
((lp82
tp83
Rp84
sg48
Nsg49
I00
sg74
Vphys03
p85
sg73
V/HTo2Tau_hadronic_GEN_SIM/lpcml-HTo2Tau_hadronic_AOD-95c11d769a94d1b6837b0af1a07c8b5e/USER
p86
sg71
VFileBased
p87
sg77
I1
sg75
I01
sg78
V/store/group/lpcml/bbbam/MCGeneration_run3/HTo2Tau_hadronic
p88
sg72
I01
sg76
g50
sbsg24
g13
(g27
g15
Ntp89
Rp90
(dp91
g31
g4
sg32
g24
sg33
g34
((lp92
VstorageSite
p93
aVwhitelist
p94
atp95
Rp96
sg42
(dp97
sg44
g34
((lp98
tp99
Rp100
sg48
Nsg49
I00
sg94
(lp101
VT3_US_FNALLPC
p102
aVT2_AT_Vienna
p103
aVT2_BE_IIHE
p104
aVT2_BE_UCL
p105
aVT2_BR_SPRACE
p106
aVT2_BR_UERJ
p107
aVT2_CH_CERN
p108
aVT2_CN_Beijing
p109
aVT2_DE_DESY
p110
aVT2_DE_RWTH
p111
aVT2_EE_Estonia
p112
aVT2_ES_CIEMAT
p113
aVT2_ES_IFCA
p114
aVT2_FI_HIP
p115
aVT2_FR_IPHC
p116
aVT2_GR_Ioannina
p117
aVT2_HU_Budapest
p118
aVT2_IN_TIFR
p119
aVT2_IT_Bari
p120
aVT2_IT_Legnaro
p121
aVT2_IT_Pisa
p122
aVT2_IT_Rome
p123
aVT2_KR_KISTI
p124
aVT2_PK_NCP
p125
aVT2_PL_Cyfronet
p126
aVT2_PT_NCG_Lisbon
p127
aVT2_RU_IHEP
p128
aVT2_TR_METU
p129
aVT2_TW_NCHC
p130
aVT2_UA_KIPT
p131
aVT2_UK_London_Brunel
p132
aVT2_UK_London_IC
p133
aVT2_UK_SGrid_Bristol
p134
aVT2_UK_SGrid_RALPP
p135
aVT2_US_Caltech
p136
aVT2_US_Florida
p137
aVT2_US_MIT
p138
aVT2_US_Nebraska
p139
aVT2_US_Purdue
p140
aVT2_US_UCSD
p141
aVT2_US_Vanderbilt
p142
aVT2_US_Wisconsin
p143
asg93
g102
sbsg25
g13
(g27
g15
Ntp144
Rp145
(dp146
g31
g4
sg32
g25
sg33
g34
((lp147
tp148
Rp149
sg42
(dp150
sg44
g34
((lp151
tp152
Rp153
sg48
Nsg49
I00
sbsg26
g13
(g27
g15
Ntp154
Rp155
(dp156
g31
g4
sg32
g26
sg33
g34
((lp157
tp158
Rp159
sg42
(dp160
sg44
g34
((lp161
tp162
Rp163
sg48
Nsg49
I00
sbsbs.