(dp0
VServer
p1
Vcmsweb.cern.ch
p2
sVPort
p3
V
p4
sVRequestName
p5
V250402_154241:bhbam_crab_VBFH_HToAATo4Tau_GEN_SIM_M3p7
p6
sVvoRole
p7
VNULL
p8
sVvoGroup
p9
g4
sVinstance
p10
Vprod
p11
sVOriginalConfig
p12
ccopy_reg
_reconstructor
p13
(cWMCore.Configuration
Configuration
p14
c__builtin__
object
p15
Ntp16
Rp17
(dp18
V_internal_sections
p19
(lp20
VGeneral
p21
aVJobType
p22
aVData
p23
aVSite
p24
aVUser
p25
aVDebug
p26
asg21
g13
(cWMCore.Configuration
ConfigSection
p27
g15
Ntp28
Rp29
(dp30
V_internal_documentation
p31
g4
sV_internal_name
p32
g21
sV_internal_settings
p33
c__builtin__
set
p34
((lp35
VworkArea
p36
aVtransferLogs
p37
aVrequestName
p38
aVtransferOutputs
p39
atp40
Rp41
sV_internal_docstrings
p42
(dp43
sV_internal_children
p44
g34
((lp45
tp46
Rp47
sV_internal_parent_ref
p48
NsV_internal_skipChecks
p49
I00
sg38
VVBFH_HToAATo4Tau_GEN_SIM_M3p7
p50
sg36
Vcrab_VBFH
p51
sg39
I01
sg37
I01
sbsg22
g13
(g27
g15
Ntp52
Rp53
(dp54
g31
g4
sg32
g22
sg33
g34
((lp55
VpluginName
p56
aVpsetName
p57
aVmaxMemoryMB
p58
aVallowUndistributedCMSSW
p59
atp60
Rp61
sg42
(dp62
sg44
g34
((lp63
tp64
Rp65
sg48
Nsg49
I00
sg56
VPrivateMC
p66
sg57
VVBT_HToAA4Tau_GEN_SIM_M3p7_cfg.py
p67
sg58
I5000
sg59
I01
sbsg23
g13
(g27
g15
Ntp68
Rp69
(dp70
g31
g4
sg32
g23
sg33
g34
((lp71
VoutputPrimaryDataset
p72
aVignoreLocality
p73
aVsplitting
p74
aVoutLFNDirBase
p75
aVpublication
p76
aVtotalUnits
p77
aVunitsPerJob
p78
atp79
Rp80
sg42
(dp81
sg44
g34
((lp82
tp83
Rp84
sg48
Nsg49
I00
sg72
VVBFH_HToAATo4Tau_GEN_SIM_M3p7
p85
sg74
VEventBased
p86
sg78
I5000
sg77
I100000
sg76
I01
sg73
I01
sg75
V/store/group/lpcml/bbbam/MCGeneration_run3/VBF_signals
p87
sbsg24
g13
(g27
g15
Ntp88
Rp89
(dp90
g31
g4
sg32
g24
sg33
g34
((lp91
Vwhitelist
p92
aVstorageSite
p93
atp94
Rp95
sg42
(dp96
sg44
g34
((lp97
tp98
Rp99
sg48
Nsg49
I00
sg92
(lp100
VT3_US_FNALLPC
p101
aVT2_AT_Vienna
p102
aVT2_BE_IIHE
p103
aVT2_BE_UCL
p104
aVT2_BR_SPRACE
p105
aVT2_BR_UERJ
p106
aVT2_CH_CERN
p107
aVT2_CN_Beijing
p108
aVT2_DE_DESY
p109
aVT2_DE_RWTH
p110
aVT2_EE_Estonia
p111
aVT2_ES_CIEMAT
p112
aVT2_ES_IFCA
p113
aVT2_FI_HIP
p114
aVT2_FR_IPHC
p115
aVT2_GR_Ioannina
p116
aVT2_HU_Budapest
p117
aVT2_IN_TIFR
p118
aVT2_IT_Bari
p119
aVT2_IT_Legnaro
p120
aVT2_IT_Pisa
p121
aVT2_IT_Rome
p122
aVT2_KR_KISTI
p123
aVT2_PK_NCP
p124
aVT2_PL_Cyfronet
p125
aVT2_PT_NCG_Lisbon
p126
aVT2_RU_IHEP
p127
aVT2_TR_METU
p128
aVT2_TW_NCHC
p129
aVT2_UA_KIPT
p130
aVT2_UK_London_Brunel
p131
aVT2_UK_London_IC
p132
aVT2_UK_SGrid_Bristol
p133
aVT2_UK_SGrid_RALPP
p134
aVT2_US_Caltech
p135
aVT2_US_Florida
p136
aVT2_US_MIT
p137
aVT2_US_Nebraska
p138
aVT2_US_Purdue
p139
aVT2_US_UCSD
p140
aVT2_US_Vanderbilt
p141
aVT2_US_Wisconsin
p142
asg93
g101
sbsg25
g13
(g27
g15
Ntp143
Rp144
(dp145
g31
g4
sg32
g25
sg33
g34
((lp146
tp147
Rp148
sg42
(dp149
sg44
g34
((lp150
tp151
Rp152
sg48
Nsg49
I00
sbsg26
g13
(g27
g15
Ntp153
Rp154
(dp155
g31
g4
sg32
g26
sg33
g34
((lp156
tp157
Rp158
sg42
(dp159
sg44
g34
((lp160
tp161
Rp162
sg48
Nsg49
I00
sbsbs.