(dp0
VServer
p1
Vcmsweb.cern.ch
p2
sVPort
p3
V
p4
sVRequestName
p5
V251217_224815:bhbam_crab_HTo2Tau_hadronic_GEN_SIM
p6
sVvoRole
p7
VNULL
p8
sVvoGroup
p9
g4
sVinstance
p10
Vprod
p11
sVOriginalConfig
p12
ccopy_reg
_reconstructor
p13
(cWMCore.Configuration
Configuration
p14
c__builtin__
object
p15
Ntp16
Rp17
(dp18
V_internal_sections
p19
(lp20
VGeneral
p21
aVJobType
p22
aVData
p23
aVSite
p24
aVUser
p25
aVDebug
p26
asg21
g13
(cWMCore.Configuration
ConfigSection
p27
g15
Ntp28
Rp29
(dp30
V_internal_documentation
p31
g4
sV_internal_name
p32
g21
sV_internal_settings
p33
c__builtin__
set
p34
((lp35
VtransferLogs
p36
aVtransferOutputs
p37
aVrequestName
p38
aVworkArea
p39
atp40
Rp41
sV_internal_docstrings
p42
(dp43
sV_internal_children
p44
g34
((lp45
tp46
Rp47
sV_internal_parent_ref
p48
NsV_internal_skipChecks
p49
I00
sg38
VHTo2Tau_hadronic_GEN_SIM
p50
sg39
Vcrab_HTo2Tau
p51
sg37
I01
sg36
I01
sbsg22
g13
(g27
g15
Ntp52
Rp53
(dp54
g31
g4
sg32
g22
sg33
g34
((lp55
VpsetName
p56
aVpluginName
p57
aVeventsPerLumi
p58
aVallowUndistributedCMSSW
p59
atp60
Rp61
sg42
(dp62
sg44
g34
((lp63
tp64
Rp65
sg48
Nsg49
I00
sg57
VPrivateMC
p66
sg56
Vstep1_GEN_SIM_HTo2Tau_TSG-Run3Summer23BPixwmLHEGS-00003_1_cfg.py
p67
sg59
I01
sg58
I500
sbsg23
g13
(g27
g15
Ntp68
Rp69
(dp70
g31
g4
sg32
g23
sg33
g34
((lp71
Vsplitting
p72
aVignoreLocality
p73
aVtotalUnits
p74
aVoutLFNDirBase
p75
aVpublication
p76
aVoutputPrimaryDataset
p77
aVunitsPerJob
p78
atp79
Rp80
sg42
(dp81
sg44
g34
((lp82
tp83
Rp84
sg48
Nsg49
I00
sg77
g50
sg72
VEventBased
p85
sg78
I500
sg74
I15000
sg76
I01
sg73
I01
sg75
V/store/group/lpcml/bbbam/MCGeneration_run3/HTo2Tau_hadronic
p86
sbsg24
g13
(g27
g15
Ntp87
Rp88
(dp89
g31
g4
sg32
g24
sg33
g34
((lp90
Vwhitelist
p91
aVstorageSite
p92
atp93
Rp94
sg42
(dp95
sg44
g34
((lp96
tp97
Rp98
sg48
Nsg49
I00
sg91
(lp99
VT3_US_FNALLPC
p100
aVT2_AT_Vienna
p101
aVT2_BE_IIHE
p102
aVT2_BE_UCL
p103
aVT2_BR_SPRACE
p104
aVT2_BR_UERJ
p105
aVT2_CH_CERN
p106
aVT2_CN_Beijing
p107
aVT2_DE_DESY
p108
aVT2_DE_RWTH
p109
aVT2_EE_Estonia
p110
aVT2_ES_CIEMAT
p111
aVT2_ES_IFCA
p112
aVT2_FI_HIP
p113
aVT2_FR_IPHC
p114
aVT2_GR_Ioannina
p115
aVT2_HU_Budapest
p116
aVT2_IN_TIFR
p117
aVT2_IT_Bari
p118
aVT2_IT_Legnaro
p119
aVT2_IT_Pisa
p120
aVT2_IT_Rome
p121
aVT2_KR_KISTI
p122
aVT2_PK_NCP
p123
aVT2_PL_Cyfronet
p124
aVT2_PT_NCG_Lisbon
p125
aVT2_RU_IHEP
p126
aVT2_TR_METU
p127
aVT2_TW_NCHC
p128
aVT2_UA_KIPT
p129
aVT2_UK_London_Brunel
p130
aVT2_UK_London_IC
p131
aVT2_UK_SGrid_Bristol
p132
aVT2_UK_SGrid_RALPP
p133
aVT2_US_Caltech
p134
aVT2_US_Florida
p135
aVT2_US_MIT
p136
aVT2_US_Nebraska
p137
aVT2_US_Purdue
p138
aVT2_US_UCSD
p139
aVT2_US_Vanderbilt
p140
aVT2_US_Wisconsin
p141
asg92
g100
sbsg25
g13
(g27
g15
Ntp142
Rp143
(dp144
g31
g4
sg32
g25
sg33
g34
((lp145
tp146
Rp147
sg42
(dp148
sg44
g34
((lp149
tp150
Rp151
sg48
Nsg49
I00
sbsg26
g13
(g27
g15
Ntp152
Rp153
(dp154
g31
g4
sg32
g26
sg33
g34
((lp155
tp156
Rp157
sg42
(dp158
sg44
g34
((lp159
tp160
Rp161
sg48
Nsg49
I00
sbsbs.