(dp0
VServer
p1
Vcmsweb.cern.ch
p2
sVPort
p3
V
p4
sVRequestName
p5
V250220_010848:bhbam_crab_HLT_Pielup_Tau_hadronic_m1p8To3p6_v2
p6
sVvoRole
p7
VNULL
p8
sVvoGroup
p9
g4
sVinstance
p10
Vprod
p11
sVOriginalConfig
p12
ccopy_reg
_reconstructor
p13
(cWMCore.Configuration
Configuration
p14
c__builtin__
object
p15
Ntp16
Rp17
(dp18
V_internal_sections
p19
(lp20
VGeneral
p21
aVJobType
p22
aVData
p23
aVSite
p24
aVUser
p25
aVDebug
p26
asg21
g13
(cWMCore.Configuration
ConfigSection
p27
g15
Ntp28
Rp29
(dp30
V_internal_documentation
p31
g4
sV_internal_name
p32
g21
sV_internal_settings
p33
c__builtin__
set
p34
((lp35
VtransferLogs
p36
aVrequestName
p37
aVworkArea
p38
aVtransferOutputs
p39
atp40
Rp41
sV_internal_docstrings
p42
(dp43
sV_internal_children
p44
g34
((lp45
tp46
Rp47
sV_internal_parent_ref
p48
NsV_internal_skipChecks
p49
I00
sg38
Vcrab_MC_un
p50
sg37
VHLT_Pielup_Tau_hadronic_m1p8To3p6_v2
p51
sg39
I01
sg36
I01
sbsg22
g13
(g27
g15
Ntp52
Rp53
(dp54
g31
g4
sg32
g22
sg33
g34
((lp55
VmaxMemoryMB
p56
aVnumCores
p57
aVpsetName
p58
aVallowUndistributedCMSSW
p59
aVpluginName
p60
atp61
Rp62
sg42
(dp63
sg44
g34
((lp64
tp65
Rp66
sg48
Nsg49
I00
sg60
VAnalysis
p67
sg58
VHLT_Pielup_with_pileupFileList_cfg.py
p68
sg56
I10000
sg57
I4
sg59
I01
sbsg23
g13
(g27
g15
Ntp69
Rp70
(dp71
g31
g4
sg32
g23
sg33
g34
((lp72
VinputDataset
p73
aVignoreLocality
p74
aVunitsPerJob
p75
aVsplitting
p76
aVoutLFNDirBase
p77
aVoutputDatasetTag
p78
aVtotalUnits
p79
aVinputDBS
p80
aVpublication
p81
atp82
Rp83
sg42
(dp84
sg44
g34
((lp85
tp86
Rp87
sg48
Nsg49
I00
sg80
Vphys03
p88
sg73
V/GEN_SIM_Tau_hadronic_m1p8To3p6_pt30To300_v2/lpcml-crab_Tau_hadronic_m1p8To3p6_pt30To300_pythia8_GEN_SIM_v2-d20bf728e40e8dc10734327464b3e73e/USER
p89
sg76
VFileBased
p90
sg75
I1
sg79
I-1
sg81
I01
sg74
I01
sg77
V/store/group/lpcml/bbbam/MCGeneration_run3
p91
sg78
g51
sbsg24
g13
(g27
g15
Ntp92
Rp93
(dp94
g31
g4
sg32
g24
sg33
g34
((lp95
VstorageSite
p96
aVwhitelist
p97
atp98
Rp99
sg42
(dp100
sg44
g34
((lp101
tp102
Rp103
sg48
Nsg49
I00
sg97
(lp104
VT3_US_FNALLPC
p105
aVT2_AT_Vienna
p106
aVT2_BE_IIHE
p107
aVT2_BE_UCL
p108
aVT2_BR_SPRACE
p109
aVT2_BR_UERJ
p110
aVT2_CH_CERN
p111
aVT2_CN_Beijing
p112
aVT2_DE_DESY
p113
aVT2_DE_RWTH
p114
aVT2_EE_Estonia
p115
aVT2_ES_CIEMAT
p116
aVT2_ES_IFCA
p117
aVT2_FI_HIP
p118
aVT2_FR_IPHC
p119
aVT2_GR_Ioannina
p120
aVT2_HU_Budapest
p121
aVT2_IN_TIFR
p122
aVT2_IT_Bari
p123
aVT2_IT_Legnaro
p124
aVT2_IT_Pisa
p125
aVT2_IT_Rome
p126
aVT2_KR_KISTI
p127
aVT2_PK_NCP
p128
aVT2_PL_Cyfronet
p129
aVT2_PT_NCG_Lisbon
p130
aVT2_RU_IHEP
p131
aVT2_TR_METU
p132
aVT2_TW_NCHC
p133
aVT2_UA_KIPT
p134
aVT2_UK_London_Brunel
p135
aVT2_UK_London_IC
p136
aVT2_UK_SGrid_Bristol
p137
aVT2_UK_SGrid_RALPP
p138
aVT2_US_Caltech
p139
aVT2_US_Florida
p140
aVT2_US_MIT
p141
aVT2_US_Nebraska
p142
aVT2_US_Purdue
p143
aVT2_US_UCSD
p144
aVT2_US_Vanderbilt
p145
aVT2_US_Wisconsin
p146
asg96
g105
sbsg25
g13
(g27
g15
Ntp147
Rp148
(dp149
g31
g4
sg32
g25
sg33
g34
((lp150
tp151
Rp152
sg42
(dp153
sg44
g34
((lp154
tp155
Rp156
sg48
Nsg49
I00
sbsg26
g13
(g27
g15
Ntp157
Rp158
(dp159
g31
g4
sg32
g26
sg33
g34
((lp160
tp161
Rp162
sg42
(dp163
sg44
g34
((lp164
tp165
Rp166
sg48
Nsg49
I00
sbsbs.